target datalayout = "e-m:e-p270:32:32-p271:32:32-p272:64:64-i64:64-i128:128-f80:128-n8:16:32:64-S128"
target triple = "x86_64-pc-linux-gnu"

%struct.AVFormatContext = type { ptr, ptr, ptr, ptr, ptr, i32, i32, ptr, i32, ptr, i32, ptr, ptr, i64, i64, i64, i32, i32, i32, i64, i64, ptr, i32, i32, ptr, i32, i32, i32, i32, ptr, i64, i32, i32, %struct.AVIOInterruptCB, i32, i32, i32, i32, i64, i32, i32, i32, i32, i32, i32, i32, i32, i32, i32, i32, i32, i64, i32, i32, i32, i32, i32, ptr, ptr, ptr, ptr, i32, ptr, ptr, ptr, ptr, i32, ptr, ptr, i64, ptr, ptr, ptr, i64 }
%struct.AVIOInterruptCB = type { ptr, ptr }
%struct.AVStream = type { ptr, i32, i32, ptr, ptr, %struct.AVRational, i64, i64, i64, i32, i32, %struct.AVRational, ptr, %struct.AVRational, %struct.AVPacket, i32, %struct.AVRational, i32 }
%struct.AVPacket = type { ptr, i64, i64, ptr, i32, i32, i32, ptr, i32, i64, i64, ptr, ptr, %struct.AVRational }
%struct.AVRational = type { i32, i32 }
%struct.AVCodecParameters = type { i32, i32, i32, ptr, i32, ptr, i32, i32, i64, i32, i32, i32, i32, i32, i32, %struct.AVRational, %struct.AVRational, i32, i32, i32, i32, i32, i32, i32, %struct.AVChannelLayout, i32, i32, i32, i32, i32, i32 }
%struct.AVChannelLayout = type { i32, i32, %union.anon, ptr }
%union.anon = type { i64 }
%struct.ALPMuxContext = type { ptr, i32 }

@.str.12 = private unnamed_addr constant [4 x i8] c"pcm\00", align 1
@.str.15 = private unnamed_addr constant [39 x i8] c"A maximum of 2 channels are supported\0A\00", align 1
@.str.16 = private unnamed_addr constant [23 x i8] c"Sample rate too large\0A\00", align 1
@.str.17 = private unnamed_addr constant [41 x i8] c"Sample rate must be 22050 for TUN files\0A\00", align 1

; Function Attrs: nounwind uwtable
define internal i32 @alp_write_init(ptr noundef %0) #0 {
  %2 = alloca i32, align 4
  %3 = alloca ptr, align 8
  %4 = alloca ptr, align 8
  %5 = alloca ptr, align 8
  %6 = alloca i32, align 4
  store ptr %0, ptr %3, align 8, !tbaa !15
  call void @llvm.lifetime.start.p0(i64 8, ptr %4) #4
  %7 = load ptr, ptr %3, align 8, !tbaa !15
  %8 = getelementptr inbounds nuw %struct.AVFormatContext, ptr %7, i32 0, i32 3
  %9 = load ptr, ptr %8, align 8, !tbaa !17
  store ptr %9, ptr %4, align 8, !tbaa !68
  call void @llvm.lifetime.start.p0(i64 8, ptr %5) #4
  %10 = load ptr, ptr %4, align 8, !tbaa !68
  %11 = getelementptr inbounds nuw %struct.ALPMuxContext, ptr %10, i32 0, i32 1
  %12 = load i32, ptr %11, align 8, !tbaa !70
  %13 = icmp eq i32 %12, 0
  br i1 %13, label %14, label %27

14:                                               ; preds = %1
  %15 = load ptr, ptr %3, align 8, !tbaa !15
  %16 = getelementptr inbounds nuw %struct.AVFormatContext, ptr %15, i32 0, i32 12
  %17 = load ptr, ptr %16, align 8, !tbaa !72
  %18 = call i32 @av_match_ext(ptr noundef %17, ptr noundef @.str.12)
  %19 = icmp ne i32 %18, 0
  br i1 %19, label %20, label %23

20:                                               ; preds = %14
  %21 = load ptr, ptr %4, align 8, !tbaa !68
  %22 = getelementptr inbounds nuw %struct.ALPMuxContext, ptr %21, i32 0, i32 1
  store i32 2, ptr %22, align 8, !tbaa !70
  br label %26

23:                                               ; preds = %14
  %24 = load ptr, ptr %4, align 8, !tbaa !68
  %25 = getelementptr inbounds nuw %struct.ALPMuxContext, ptr %24, i32 0, i32 1
  store i32 1, ptr %25, align 8, !tbaa !70
  br label %26

26:                                               ; preds = %23, %20
  br label %27

27:                                               ; preds = %26, %1
  %28 = load ptr, ptr %3, align 8, !tbaa !15
  %29 = getelementptr inbounds nuw %struct.AVFormatContext, ptr %28, i32 0, i32 7
  %30 = load ptr, ptr %29, align 8, !tbaa !63
  %31 = getelementptr inbounds ptr, ptr %30, i64 0
  %32 = load ptr, ptr %31, align 8, !tbaa !41
  %33 = getelementptr inbounds nuw %struct.AVStream, ptr %32, i32 0, i32 3
  %34 = load ptr, ptr %33, align 8, !tbaa !43
  store ptr %34, ptr %5, align 8, !tbaa !50
  %35 = load ptr, ptr %5, align 8, !tbaa !50
  %36 = getelementptr inbounds nuw %struct.AVCodecParameters, ptr %35, i32 0, i32 24
  %37 = getelementptr inbounds nuw %struct.AVChannelLayout, ptr %36, i32 0, i32 1
  %38 = load i32, ptr %37, align 4, !tbaa !59
  %39 = icmp sgt i32 %38, 2
  br i1 %39, label %40, label %42

40:                                               ; preds = %27
  %41 = load ptr, ptr %3, align 8, !tbaa !15
  call void (ptr, i32, ptr, ...) @av_log(ptr noundef %41, i32 noundef 16, ptr noundef @.str.15)
  store i32 -22, ptr %2, align 4
  store i32 1, ptr %6, align 4
  br label %62

42:                                               ; preds = %27
  %43 = load ptr, ptr %5, align 8, !tbaa !50
  %44 = getelementptr inbounds nuw %struct.AVCodecParameters, ptr %43, i32 0, i32 25
  %45 = load i32, ptr %44, align 8, !tbaa !56
  %46 = icmp sgt i32 %45, 44100
  br i1 %46, label %47, label %49

47:                                               ; preds = %42
  %48 = load ptr, ptr %3, align 8, !tbaa !15
  call void (ptr, i32, ptr, ...) @av_log(ptr noundef %48, i32 noundef 16, ptr noundef @.str.16)
  store i32 -22, ptr %2, align 4
  store i32 1, ptr %6, align 4
  br label %62

49:                                               ; preds = %42
  %50 = load ptr, ptr %4, align 8, !tbaa !68
  %51 = getelementptr inbounds nuw %struct.ALPMuxContext, ptr %50, i32 0, i32 1
  %52 = load i32, ptr %51, align 8, !tbaa !70
  %53 = icmp eq i32 %52, 1
  br i1 %53, label %54, label %61

54:                                               ; preds = %49
  %55 = load ptr, ptr %5, align 8, !tbaa !50
  %56 = getelementptr inbounds nuw %struct.AVCodecParameters, ptr %55, i32 0, i32 25
  %57 = load i32, ptr %56, align 8, !tbaa !56
  %58 = icmp ne i32 %57, 22050
  br i1 %58, label %59, label %61

59:                                               ; preds = %54
  %60 = load ptr, ptr %3, align 8, !tbaa !15
  call void (ptr, i32, ptr, ...) @av_log(ptr noundef %60, i32 noundef 16, ptr noundef @.str.17)
  store i32 -22, ptr %2, align 4
  store i32 1, ptr %6, align 4
  br label %62

61:                                               ; preds = %54, %49
  store i32 0, ptr %2, align 4
  store i32 1, ptr %6, align 4
  br label %62

62:                                               ; preds = %61, %59, %47, %40
  call void @llvm.lifetime.end.p0(i64 8, ptr %5) #4
  call void @llvm.lifetime.end.p0(i64 8, ptr %4) #4
  %63 = load i32, ptr %2, align 4
  ret i32 %63
}