; Function Attrs: nounwind uwtable
define internal range(i32 -22, 1) i32 @alp_write_init(ptr noundef %0) #1 {
  %2 = getelementptr inbounds nuw i8, ptr %0, i64 24
  %3 = load ptr, ptr %2, align 8, !tbaa !12
  %4 = getelementptr inbounds nuw i8, ptr %3, i64 8
  %5 = load i32, ptr %4, align 8, !tbaa !57
  %6 = icmp eq i32 %5, 0
  br i1 %6, label %.sink.split, label %10

.sink.split:                                      ; preds = %1
  %7 = getelementptr inbounds nuw i8, ptr %0, i64 88
  %8 = load ptr, ptr %7, align 8, !tbaa !59
  %9 = tail call i32 @av_match_ext(ptr noundef %8, ptr noundef nonnull @.str.12) #5
  %.not = icmp eq i32 %9, 0
  %. = select i1 %.not, i32 1, i32 2
  store i32 %., ptr %4, align 8, !tbaa !57
  br label %10

10:                                               ; preds = %.sink.split, %1
  %11 = phi i32 [ %5, %1 ], [ %., %.sink.split ]
  %12 = getelementptr inbounds nuw i8, ptr %0, i64 48
  %13 = load ptr, ptr %12, align 8, !tbaa !51
  %14 = load ptr, ptr %13, align 8, !tbaa !52
  %15 = getelementptr inbounds nuw i8, ptr %14, i64 16
  %16 = load ptr, ptr %15, align 8, !tbaa !34
  %17 = getelementptr inbounds nuw i8, ptr %16, i64 132
  %18 = load i32, ptr %17, align 4, !tbaa !49
  %19 = icmp sgt i32 %18, 2
  br i1 %19, label %.sink.split15, label %20

20:                                               ; preds = %10
  %21 = getelementptr inbounds nuw i8, ptr %16, i64 152
  %22 = load i32, ptr %21, align 8, !tbaa !46
  %23 = icmp sgt i32 %22, 44100
  br i1 %23, label %.sink.split15, label %24

24:                                               ; preds = %20
  %25 = icmp ne i32 %11, 1
  %.not14 = icmp eq i32 %22, 22050
  %or.cond = or i1 %.not14, %25
  br i1 %or.cond, label %26, label %.sink.split15

.sink.split15:                                    ; preds = %24, %20, %10
  %.str.17.sink = phi ptr [ @.str.15, %10 ], [ @.str.16, %20 ], [ @.str.17, %24 ]
  tail call void (ptr, i32, ptr, ...) @av_log(ptr noundef nonnull %0, i32 noundef 16, ptr noundef nonnull %.str.17.sink) #5
  br label %26

26:                                               ; preds = %.sink.split15, %24
  %.0 = phi i32 [ 0, %24 ], [ -22, %.sink.split15 ]
  ret i32 %.0
}